target datalayout = "e-m:e-p270:32:32-p271:32:32-p272:64:64-i64:64-i128:128-f80:128-n8:16:32:64-S128"
target triple = "x86_64-unknown-linux-gnu"

%"class.icu_75::MaybeStackArray.0" = type { ptr, i32, i8, [3 x ptr] }
%"class.icu_75::numparse::impl::NumberParseMatcher" = type { ptr }
%"class.icu_75::numparse::impl::AffixPatternMatcher" = type { %"class.icu_75::numparse::impl::ArraySeriesMatcher.base", [4 x i8], %"class.icu_75::numparse::impl::CompactUnicodeString" }
%"class.icu_75::numparse::impl::ArraySeriesMatcher.base" = type <{ %"class.icu_75::numparse::impl::SeriesMatcher", %"class.icu_75::MaybeStackArray.0", i32 }>
%"class.icu_75::numparse::impl::SeriesMatcher" = type { %"class.icu_75::numparse::impl::CompositionMatcher" }
%"class.icu_75::numparse::impl::CompositionMatcher" = type { %"class.icu_75::numparse::impl::NumberParseMatcher" }
%"class.icu_75::numparse::impl::CompactUnicodeString" = type { %"class.icu_75::MaybeStackArray.3" }
%"class.icu_75::MaybeStackArray.3" = type <{ ptr, i32, i8, i8, [4 x i16], [2 x i8] }>
%"class.icu_75::numparse::impl::ArraySeriesMatcher" = type <{ %"class.icu_75::numparse::impl::SeriesMatcher", %"class.icu_75::MaybeStackArray.0", i32, [4 x i8] }>
%"class.icu_75::numparse::impl::AffixMatcherWarehouse" = type { [18 x %"class.icu_75::numparse::impl::AffixMatcher"], [12 x %"class.icu_75::numparse::impl::AffixPatternMatcher"], ptr }
%"class.icu_75::numparse::impl::AffixMatcher" = type <{ %"class.icu_75::numparse::impl::NumberParseMatcher", ptr, ptr, i32, [4 x i8] }>

@_ZTVN6icu_758numparse4impl18NumberParseMatcherE = external unnamed_addr constant { [9 x ptr] }, align 8
@_ZTVN6icu_758numparse4impl18ArraySeriesMatcherE = external unnamed_addr constant { [12 x ptr] }, align 8

; Function Attrs: mustprogress nounwind uwtable
define linkonce_odr void @_ZN6icu_758numparse4impl18CompositionMatcherD2Ev(ptr noundef nonnull align 8 dereferenceable(8) %this) unnamed_addr #0 comdat align 2 {
entry:
  %this.addr = alloca ptr, align 8
  store ptr %this, ptr %this.addr, align 8
  %this1 = load ptr, ptr %this.addr, align 8
  call void @_ZN6icu_758numparse4impl18NumberParseMatcherD2Ev(ptr noundef nonnull align 8 dereferenceable(8) %this1) #13
  ret void
}

; Function Attrs: mustprogress uwtable
define linkonce_odr void @_ZN6icu_7515MaybeStackArrayIPKNS_8numparse4impl18NumberParseMatcherELi3EE12releaseArrayEv(ptr noundef nonnull align 8 dereferenceable(40) %this) #1 comdat align 2 {
entry:
  %this.addr = alloca ptr, align 8
  store ptr %this, ptr %this.addr, align 8
  %this1 = load ptr, ptr %this.addr, align 8
  %needToRelease = getelementptr inbounds %"class.icu_75::MaybeStackArray.0", ptr %this1, i32 0, i32 2
  %0 = load i8, ptr %needToRelease, align 4
  %tobool = icmp ne i8 %0, 0
  br i1 %tobool, label %if.then, label %if.end

if.then:                                          ; preds = %entry
  %ptr = getelementptr inbounds %"class.icu_75::MaybeStackArray.0", ptr %this1, i32 0, i32 0
  %1 = load ptr, ptr %ptr, align 8
  call void @uprv_free_75(ptr noundef %1)
  br label %if.end

if.end:                                           ; preds = %if.then, %entry
  ret void
}

; Function Attrs: noreturn nounwind uwtable
define linkonce_odr hidden void @__clang_call_terminate(ptr noundef %0) #2 comdat {
  %2 = call ptr @__cxa_begin_catch(ptr %0) #13
  call void @_ZSt9terminatev() #15
  unreachable
}

; Function Attrs: mustprogress uwtable
define linkonce_odr void @_ZN6icu_7515MaybeStackArrayIDsLi4EE12releaseArrayEv(ptr noundef nonnull align 8 dereferenceable(22) %this) #1 comdat align 2 {
entry:
  %this.addr = alloca ptr, align 8
  store ptr %this, ptr %this.addr, align 8
  %this1 = load ptr, ptr %this.addr, align 8
  %needToRelease = getelementptr inbounds %"class.icu_75::MaybeStackArray.3", ptr %this1, i32 0, i32 2
  %0 = load i8, ptr %needToRelease, align 4
  %tobool = icmp ne i8 %0, 0
  br i1 %tobool, label %if.then, label %if.end

if.then:                                          ; preds = %entry
  %ptr = getelementptr inbounds %"class.icu_75::MaybeStackArray.3", ptr %this1, i32 0, i32 0
  %1 = load ptr, ptr %ptr, align 8
  call void @uprv_free_75(ptr noundef %1)
  br label %if.end

if.end:                                           ; preds = %if.then, %entry
  ret void
}

; Function Attrs: mustprogress nounwind uwtable
define linkonce_odr void @_ZN6icu_758numparse4impl13SeriesMatcherD2Ev(ptr noundef nonnull align 8 dereferenceable(8) %this) unnamed_addr #0 comdat align 2 {
entry:
  %this.addr = alloca ptr, align 8
  store ptr %this, ptr %this.addr, align 8
  %this1 = load ptr, ptr %this.addr, align 8
  call void @_ZN6icu_758numparse4impl18CompositionMatcherD2Ev(ptr noundef nonnull align 8 dereferenceable(8) %this1) #13
  ret void
}

; Function Attrs: mustprogress nounwind uwtable
define linkonce_odr void @_ZN6icu_7515MaybeStackArrayIPKNS_8numparse4impl18NumberParseMatcherELi3EED2Ev(ptr noundef nonnull align 8 dereferenceable(40) %this) unnamed_addr #0 comdat align 2 personality ptr @__gxx_personality_v0 {
entry:
  %this.addr = alloca ptr, align 8
  store ptr %this, ptr %this.addr, align 8
  %this1 = load ptr, ptr %this.addr, align 8
  invoke void @_ZN6icu_7515MaybeStackArrayIPKNS_8numparse4impl18NumberParseMatcherELi3EE12releaseArrayEv(ptr noundef nonnull align 8 dereferenceable(40) %this1)
          to label %invoke.cont unwind label %terminate.lpad

invoke.cont:                                      ; preds = %entry
  ret void

terminate.lpad:                                   ; preds = %entry
  %0 = landingpad { ptr, i32 }
          catch ptr null
  %1 = extractvalue { ptr, i32 } %0, 0
  call void @__clang_call_terminate(ptr %1) #15
  unreachable
}

; Function Attrs: mustprogress nounwind uwtable
define linkonce_odr void @_ZN6icu_7515MaybeStackArrayIDsLi4EED2Ev(ptr noundef nonnull align 8 dereferenceable(22) %this) unnamed_addr #0 comdat align 2 personality ptr @__gxx_personality_v0 {
entry:
  %this.addr = alloca ptr, align 8
  store ptr %this, ptr %this.addr, align 8
  %this1 = load ptr, ptr %this.addr, align 8
  invoke void @_ZN6icu_7515MaybeStackArrayIDsLi4EE12releaseArrayEv(ptr noundef nonnull align 8 dereferenceable(22) %this1)
          to label %invoke.cont unwind label %terminate.lpad

invoke.cont:                                      ; preds = %entry
  ret void

terminate.lpad:                                   ; preds = %entry
  %0 = landingpad { ptr, i32 }
          catch ptr null
  %1 = extractvalue { ptr, i32 } %0, 0
  call void @__clang_call_terminate(ptr %1) #15
  unreachable
}

; Function Attrs: mustprogress nounwind uwtable
define linkonce_odr noundef nonnull align 2 dereferenceable(2) ptr @_ZN6icu_7515MaybeStackArrayIDsLi4EEixEl(ptr noundef nonnull align 8 dereferenceable(22) %this, i64 noundef %i) #0 comdat align 2 {
entry:
  %this.addr = alloca ptr, align 8
  %i.addr = alloca i64, align 8
  store ptr %this, ptr %this.addr, align 8
  store i64 %i, ptr %i.addr, align 8
  %this1 = load ptr, ptr %this.addr, align 8
  %ptr = getelementptr inbounds %"class.icu_75::MaybeStackArray.3", ptr %this1, i32 0, i32 0
  %0 = load ptr, ptr %ptr, align 8
  %1 = load i64, ptr %i.addr, align 8
  %arrayidx = getelementptr inbounds i16, ptr %0, i64 %1
  ret ptr %arrayidx
}

; Function Attrs: mustprogress nounwind uwtable
define linkonce_odr void @_ZN6icu_7515MaybeStackArrayIDsLi4EEC2Ev(ptr noundef nonnull align 8 dereferenceable(22) %this) unnamed_addr #0 comdat align 2 {
entry:
  %this.addr = alloca ptr, align 8
  store ptr %this, ptr %this.addr, align 8
  %this1 = load ptr, ptr %this.addr, align 8
  %ptr = getelementptr inbounds %"class.icu_75::MaybeStackArray.3", ptr %this1, i32 0, i32 0
  %stackArray = getelementptr inbounds %"class.icu_75::MaybeStackArray.3", ptr %this1, i32 0, i32 4
  %arraydecay = getelementptr inbounds [4 x i16], ptr %stackArray, i64 0, i64 0
  store ptr %arraydecay, ptr %ptr, align 8
  %capacity = getelementptr inbounds %"class.icu_75::MaybeStackArray.3", ptr %this1, i32 0, i32 1
  store i32 4, ptr %capacity, align 8
  %needToRelease = getelementptr inbounds %"class.icu_75::MaybeStackArray.3", ptr %this1, i32 0, i32 2
  store i8 0, ptr %needToRelease, align 4
  ret void
}

; Function Attrs: mustprogress nounwind uwtable
define linkonce_odr void @_ZN6icu_758numparse4impl18ArraySeriesMatcherD2Ev(ptr noundef nonnull align 8 dereferenceable(52) %this) unnamed_addr #0 comdat align 2 {
entry:
  %this.addr = alloca ptr, align 8
  store ptr %this, ptr %this.addr, align 8
  %this1 = load ptr, ptr %this.addr, align 8
  store ptr getelementptr inbounds ({ [12 x ptr] }, ptr @_ZTVN6icu_758numparse4impl18ArraySeriesMatcherE, i32 0, i32 0, i32 2), ptr %this1, align 8
  %fMatchers = getelementptr inbounds %"class.icu_75::numparse::impl::ArraySeriesMatcher", ptr %this1, i32 0, i32 1
  call void @_ZN6icu_7515MaybeStackArrayIPKNS_8numparse4impl18NumberParseMatcherELi3EED2Ev(ptr noundef nonnull align 8 dereferenceable(40) %fMatchers) #13
  call void @_ZN6icu_758numparse4impl13SeriesMatcherD2Ev(ptr noundef nonnull align 8 dereferenceable(8) %this1) #13
  ret void
}

; Function Attrs: mustprogress uwtable
define linkonce_odr void @_ZN6icu_758numparse4impl20CompactUnicodeStringILi4EEC2Ev(ptr noundef nonnull align 8 dereferenceable(24) %this) unnamed_addr #1 comdat align 2 personality ptr @__gxx_personality_v0 {
entry:
  %this.addr = alloca ptr, align 8
  %exn.slot = alloca ptr, align 8
  %ehselector.slot = alloca i32, align 4
  store ptr %this, ptr %this.addr, align 8
  %this1 = load ptr, ptr %this.addr, align 8
  %fBuffer = getelementptr inbounds %"class.icu_75::numparse::impl::CompactUnicodeString", ptr %this1, i32 0, i32 0
  call void @_ZN6icu_7515MaybeStackArrayIDsLi4EEC2Ev(ptr noundef nonnull align 8 dereferenceable(22) %fBuffer)
  %fBuffer2 = getelementptr inbounds %"class.icu_75::numparse::impl::CompactUnicodeString", ptr %this1, i32 0, i32 0
  %call = invoke noundef nonnull align 2 dereferenceable(2) ptr @_ZN6icu_7515MaybeStackArrayIDsLi4EEixEl(ptr noundef nonnull align 8 dereferenceable(22) %fBuffer2, i64 noundef 0)
          to label %invoke.cont unwind label %lpad

invoke.cont:                                      ; preds = %entry
  store i16 0, ptr %call, align 2
  ret void

lpad:                                             ; preds = %entry
  %0 = landingpad { ptr, i32 }
          cleanup
  %1 = extractvalue { ptr, i32 } %0, 0
  store ptr %1, ptr %exn.slot, align 8
  %2 = extractvalue { ptr, i32 } %0, 1
  store i32 %2, ptr %ehselector.slot, align 4
  call void @_ZN6icu_7515MaybeStackArrayIDsLi4EED2Ev(ptr noundef nonnull align 8 dereferenceable(22) %fBuffer) #13
  br label %eh.resume

eh.resume:                                        ; preds = %lpad
  %exn = load ptr, ptr %exn.slot, align 8
  %sel = load i32, ptr %ehselector.slot, align 4
  %lpad.val = insertvalue { ptr, i32 } poison, ptr %exn, 0
  %lpad.val3 = insertvalue { ptr, i32 } %lpad.val, i32 %sel, 1
  resume { ptr, i32 } %lpad.val3
}

; Function Attrs: mustprogress nounwind uwtable
define linkonce_odr void @_ZN6icu_758numparse4impl18NumberParseMatcherC2Ev(ptr noundef nonnull align 8 dereferenceable(8) %this) unnamed_addr #0 comdat align 2 {
entry:
  %this.addr = alloca ptr, align 8
  store ptr %this, ptr %this.addr, align 8
  %this1 = load ptr, ptr %this.addr, align 8
  store ptr getelementptr inbounds ({ [9 x ptr] }, ptr @_ZTVN6icu_758numparse4impl18NumberParseMatcherE, i32 0, i32 0, i32 2), ptr %this1, align 8
  ret void
}

; Function Attrs: mustprogress nounwind uwtable
define linkonce_odr void @_ZN6icu_758numparse4impl12AffixMatcherD2Ev(ptr noundef nonnull align 8 dereferenceable(28) %this) unnamed_addr #0 comdat align 2 {
entry:
  %this.addr = alloca ptr, align 8
  store ptr %this, ptr %this.addr, align 8
  %this1 = load ptr, ptr %this.addr, align 8
  call void @_ZN6icu_758numparse4impl18NumberParseMatcherD2Ev(ptr noundef nonnull align 8 dereferenceable(8) %this1) #13
  ret void
}

; Function Attrs: mustprogress uwtable
define linkonce_odr void @_ZN6icu_758numparse4impl19AffixPatternMatcherC2Ev(ptr noundef nonnull align 8 dereferenceable(80) %this) unnamed_addr #1 comdat align 2 personality ptr @__gxx_personality_v0 {
entry:
  %this.addr = alloca ptr, align 8
  %exn.slot = alloca ptr, align 8
  %ehselector.slot = alloca i32, align 4
  store ptr %this, ptr %this.addr, align 8
  %this1 = load ptr, ptr %this.addr, align 8
  call void @_ZN6icu_758numparse4impl18ArraySeriesMatcherC2Ev(ptr noundef nonnull align 8 dereferenceable(52) %this1)
  store ptr getelementptr inbounds ({ [12 x ptr] }, ptr @_ZTVN6icu_758numparse4impl19AffixPatternMatcherE, i32 0, i32 0, i32 2), ptr %this1, align 8
  %fPattern = getelementptr inbounds %"class.icu_75::numparse::impl::AffixPatternMatcher", ptr %this1, i32 0, i32 2
  invoke void @_ZN6icu_758numparse4impl20CompactUnicodeStringILi4EEC2Ev(ptr noundef nonnull align 8 dereferenceable(24) %fPattern)
          to label %invoke.cont unwind label %lpad

invoke.cont:                                      ; preds = %entry
  ret void

lpad:                                             ; preds = %entry
  %0 = landingpad { ptr, i32 }
          cleanup
  %1 = extractvalue { ptr, i32 } %0, 0
  store ptr %1, ptr %exn.slot, align 8
  %2 = extractvalue { ptr, i32 } %0, 1
  store i32 %2, ptr %ehselector.slot, align 4
  call void @_ZN6icu_758numparse4impl18ArraySeriesMatcherD2Ev(ptr noundef nonnull align 8 dereferenceable(52) %this1) #13
  br label %eh.resume

eh.resume:                                        ; preds = %lpad
  %exn = load ptr, ptr %exn.slot, align 8
  %sel = load i32, ptr %ehselector.slot, align 4
  %lpad.val = insertvalue { ptr, i32 } poison, ptr %exn, 0
  %lpad.val2 = insertvalue { ptr, i32 } %lpad.val, i32 %sel, 1
  resume { ptr, i32 } %lpad.val2
}

; Function Attrs: mustprogress nounwind uwtable
define linkonce_odr void @_ZN6icu_758numparse4impl12AffixMatcherC2Ev(ptr noundef nonnull align 8 dereferenceable(28) %this) unnamed_addr #0 comdat align 2 {
entry:
  %this.addr = alloca ptr, align 8
  store ptr %this, ptr %this.addr, align 8
  %this1 = load ptr, ptr %this.addr, align 8
  call void @_ZN6icu_758numparse4impl18NumberParseMatcherC2Ev(ptr noundef nonnull align 8 dereferenceable(8) %this1) #13
  store ptr getelementptr inbounds ({ [9 x ptr] }, ptr @_ZTVN6icu_758numparse4impl12AffixMatcherE, i32 0, i32 0, i32 2), ptr %this1, align 8
  ret void
}

; Function Attrs: mustprogress uwtable
define void @_ZN6icu_758numparse4impl21AffixMatcherWarehouseC2EPNS1_26AffixTokenMatcherWarehouseE(ptr noundef nonnull align 8 dereferenceable(1544) %this, ptr noundef %tokenWarehouse) unnamed_addr #1 align 2 personality ptr @__gxx_personality_v0 {
entry:
  %this.addr = alloca ptr, align 8
  %tokenWarehouse.addr = alloca ptr, align 8
  %exn.slot = alloca ptr, align 8
  %ehselector.slot = alloca i32, align 4
  store ptr %this, ptr %this.addr, align 8
  store ptr %tokenWarehouse, ptr %tokenWarehouse.addr, align 8
  %this1 = load ptr, ptr %this.addr, align 8
  %fAffixMatchers = getelementptr inbounds %"class.icu_75::numparse::impl::AffixMatcherWarehouse", ptr %this1, i32 0, i32 0
  %array.begin = getelementptr inbounds [18 x %"class.icu_75::numparse::impl::AffixMatcher"], ptr %fAffixMatchers, i32 0, i32 0
  %arrayctor.end = getelementptr inbounds %"class.icu_75::numparse::impl::AffixMatcher", ptr %array.begin, i64 18
  br label %arrayctor.loop

arrayctor.loop:                                   ; preds = %arrayctor.loop, %entry
  %arrayctor.cur = phi ptr [ %array.begin, %entry ], [ %arrayctor.next, %arrayctor.loop ]
  call void @_ZN6icu_758numparse4impl12AffixMatcherC2Ev(ptr noundef nonnull align 8 dereferenceable(28) %arrayctor.cur) #13
  %arrayctor.next = getelementptr inbounds %"class.icu_75::numparse::impl::AffixMatcher", ptr %arrayctor.cur, i64 1
  %arrayctor.done = icmp eq ptr %arrayctor.next, %arrayctor.end
  br i1 %arrayctor.done, label %arrayctor.cont, label %arrayctor.loop

arrayctor.cont:                                   ; preds = %arrayctor.loop
  %fAffixPatternMatchers = getelementptr inbounds %"class.icu_75::numparse::impl::AffixMatcherWarehouse", ptr %this1, i32 0, i32 1
  %array.begin2 = getelementptr inbounds [12 x %"class.icu_75::numparse::impl::AffixPatternMatcher"], ptr %fAffixPatternMatchers, i32 0, i32 0
  %arrayctor.end3 = getelementptr inbounds %"class.icu_75::numparse::impl::AffixPatternMatcher", ptr %array.begin2, i64 12
  br label %arrayctor.loop4

arrayctor.loop4:                                  ; preds = %invoke.cont, %arrayctor.cont
  %arrayctor.cur5 = phi ptr [ %array.begin2, %arrayctor.cont ], [ %arrayctor.next7, %invoke.cont ]
  invoke void @_ZN6icu_758numparse4impl19AffixPatternMatcherC2Ev(ptr noundef nonnull align 8 dereferenceable(80) %arrayctor.cur5)
          to label %invoke.cont unwind label %lpad

invoke.cont:                                      ; preds = %arrayctor.loop4
  %arrayctor.next7 = getelementptr inbounds %"class.icu_75::numparse::impl::AffixPatternMatcher", ptr %arrayctor.cur5, i64 1
  %arrayctor.done8 = icmp eq ptr %arrayctor.next7, %arrayctor.end3
  br i1 %arrayctor.done8, label %arrayctor.cont9, label %arrayctor.loop4

arrayctor.cont9:                                  ; preds = %invoke.cont
  %fTokenWarehouse = getelementptr inbounds %"class.icu_75::numparse::impl::AffixMatcherWarehouse", ptr %this1, i32 0, i32 2
  %0 = load ptr, ptr %tokenWarehouse.addr, align 8
  store ptr %0, ptr %fTokenWarehouse, align 8
  ret void

lpad:                                             ; preds = %arrayctor.loop4
  %1 = landingpad { ptr, i32 }
          cleanup
  %2 = extractvalue { ptr, i32 } %1, 0
  store ptr %2, ptr %exn.slot, align 8
  %3 = extractvalue { ptr, i32 } %1, 1
  store i32 %3, ptr %ehselector.slot, align 4
  %arraydestroy.isempty = icmp eq ptr %array.begin2, %arrayctor.cur5
  br i1 %arraydestroy.isempty, label %arraydestroy.done6, label %arraydestroy.body

arraydestroy.body:                                ; preds = %arraydestroy.body, %lpad
  %arraydestroy.elementPast = phi ptr [ %arrayctor.cur5, %lpad ], [ %arraydestroy.element, %arraydestroy.body ]
  %arraydestroy.element = getelementptr inbounds %"class.icu_75::numparse::impl::AffixPatternMatcher", ptr %arraydestroy.elementPast, i64 -1
  call void @_ZN6icu_758numparse4impl19AffixPatternMatcherD2Ev(ptr noundef nonnull align 8 dereferenceable(80) %arraydestroy.element) #13
  %arraydestroy.done = icmp eq ptr %arraydestroy.element, %array.begin2
  br i1 %arraydestroy.done, label %arraydestroy.done6, label %arraydestroy.body

arraydestroy.done6:                               ; preds = %arraydestroy.body, %lpad
  %array.begin10 = getelementptr inbounds [18 x %"class.icu_75::numparse::impl::AffixMatcher"], ptr %fAffixMatchers, i32 0, i32 0
  %4 = getelementptr inbounds %"class.icu_75::numparse::impl::AffixMatcher", ptr %array.begin10, i64 18
  br label %arraydestroy.body11

arraydestroy.body11:                              ; preds = %arraydestroy.body11, %arraydestroy.done6
  %arraydestroy.elementPast12 = phi ptr [ %4, %arraydestroy.done6 ], [ %arraydestroy.element13, %arraydestroy.body11 ]
  %arraydestroy.element13 = getelementptr inbounds %"class.icu_75::numparse::impl::AffixMatcher", ptr %arraydestroy.elementPast12, i64 -1
  call void @_ZN6icu_758numparse4impl12AffixMatcherD2Ev(ptr noundef nonnull align 8 dereferenceable(28) %arraydestroy.element13) #13
  %arraydestroy.done14 = icmp eq ptr %arraydestroy.element13, %array.begin10
  br i1 %arraydestroy.done14, label %arraydestroy.done15, label %arraydestroy.body11

arraydestroy.done15:                              ; preds = %arraydestroy.body11
  br label %eh.resume

eh.resume:                                        ; preds = %arraydestroy.done15
  %exn = load ptr, ptr %exn.slot, align 8
  %sel = load i32, ptr %ehselector.slot, align 4
  %lpad.val = insertvalue { ptr, i32 } poison, ptr %exn, 0
  %lpad.val16 = insertvalue { ptr, i32 } %lpad.val, i32 %sel, 1
  resume { ptr, i32 } %lpad.val16
}