; Function Attrs: mustprogress uwtable
define void @_ZN6icu_758numparse4impl21AffixMatcherWarehouseC2EPNS1_26AffixTokenMatcherWarehouseE(ptr noundef nonnull align 8 dereferenceable(1544) %this, ptr noundef %tokenWarehouse) unnamed_addr #1 align 2 personality ptr @__gxx_personality_v0 {
entry:
  br label %arrayctor.loop

arrayctor.loop:                                   ; preds = %arrayctor.loop, %entry
  %arrayctor.cur.idx = phi i64 [ 0, %entry ], [ %arrayctor.cur.add, %arrayctor.loop ]
  %arrayctor.cur.ptr = getelementptr inbounds i8, ptr %this, i64 %arrayctor.cur.idx
  store ptr getelementptr inbounds ({ [9 x ptr] }, ptr @_ZTVN6icu_758numparse4impl12AffixMatcherE, i64 0, i32 0, i64 2), ptr %arrayctor.cur.ptr, align 8
  %arrayctor.cur.add = add nuw nsw i64 %arrayctor.cur.idx, 32
  %arrayctor.done = icmp eq i64 %arrayctor.cur.add, 576
  br i1 %arrayctor.done, label %arrayctor.loop4.preheader, label %arrayctor.loop

arrayctor.loop4.preheader:                        ; preds = %arrayctor.loop
  %arrayctor.end.ptr = getelementptr inbounds i8, ptr %this, i64 576
  br label %arrayctor.loop4

arrayctor.loop4:                                  ; preds = %arrayctor.loop4.preheader, %invoke.cont
  %arrayctor.cur5.idx = phi i64 [ %arrayctor.cur5.add, %invoke.cont ], [ 576, %arrayctor.loop4.preheader ]
  %arrayctor.cur5.ptr.ptr = getelementptr inbounds i8, ptr %this, i64 %arrayctor.cur5.idx
  invoke void @_ZN6icu_758numparse4impl18ArraySeriesMatcherC2Ev(ptr noundef nonnull align 8 dereferenceable(52) %arrayctor.cur5.ptr.ptr)
          to label %invoke.cont unwind label %lpad

invoke.cont:                                      ; preds = %arrayctor.loop4
  store ptr getelementptr inbounds ({ [12 x ptr] }, ptr @_ZTVN6icu_758numparse4impl19AffixPatternMatcherE, i64 0, i32 0, i64 2), ptr %arrayctor.cur5.ptr.ptr, align 8
  %fPattern.i = getelementptr inbounds i8, ptr %arrayctor.cur5.ptr.ptr, i64 56
  %stackArray.i.i.i = getelementptr inbounds i8, ptr %arrayctor.cur5.ptr.ptr, i64 70
  store ptr %stackArray.i.i.i, ptr %fPattern.i, align 8
  %capacity.i.i.i = getelementptr inbounds i8, ptr %arrayctor.cur5.ptr.ptr, i64 64
  store i32 4, ptr %capacity.i.i.i, align 8
  %needToRelease.i.i.i = getelementptr inbounds i8, ptr %arrayctor.cur5.ptr.ptr, i64 68
  store i8 0, ptr %needToRelease.i.i.i, align 4
  store i16 0, ptr %stackArray.i.i.i, align 2
  %arrayctor.cur5.add = add nuw nsw i64 %arrayctor.cur5.idx, 80
  %arrayctor.done8 = icmp eq i64 %arrayctor.cur5.add, 1536
  br i1 %arrayctor.done8, label %arrayctor.cont9, label %arrayctor.loop4

arrayctor.cont9:                                  ; preds = %invoke.cont
  %fTokenWarehouse = getelementptr inbounds i8, ptr %this, i64 1536
  store ptr %tokenWarehouse, ptr %fTokenWarehouse, align 8
  ret void

lpad:                                             ; preds = %arrayctor.loop4
  %0 = landingpad { ptr, i32 }
          cleanup
  %arraydestroy.isempty = icmp eq i64 %arrayctor.cur5.idx, 576
  br i1 %arraydestroy.isempty, label %arraydestroy.body11.preheader, label %arraydestroy.body

arraydestroy.body:                                ; preds = %lpad, %arraydestroy.body
  %arraydestroy.elementPast.idx = phi i64 [ %arraydestroy.elementPast.add, %arraydestroy.body ], [ %arrayctor.cur5.idx, %lpad ]
  %arraydestroy.elementPast.add = add nsw i64 %arraydestroy.elementPast.idx, -80
  %arraydestroy.element.ptr = getelementptr inbounds i8, ptr %this, i64 %arraydestroy.elementPast.add
  tail call void @_ZN6icu_758numparse4impl19AffixPatternMatcherD2Ev(ptr noundef nonnull align 8 dereferenceable(80) %arraydestroy.element.ptr) #16
  %arraydestroy.done = icmp eq i64 %arraydestroy.elementPast.add, 576
  br i1 %arraydestroy.done, label %arraydestroy.body11.preheader, label %arraydestroy.body

arraydestroy.body11.preheader:                    ; preds = %arraydestroy.body, %lpad
  br label %arraydestroy.body11

arraydestroy.body11:                              ; preds = %arraydestroy.body11.preheader, %arraydestroy.body11
  %arraydestroy.elementPast12 = phi ptr [ %arraydestroy.element13, %arraydestroy.body11 ], [ %arrayctor.end.ptr, %arraydestroy.body11.preheader ]
  %arraydestroy.element13 = getelementptr inbounds i8, ptr %arraydestroy.elementPast12, i64 -32
  tail call void @_ZN6icu_758numparse4impl18NumberParseMatcherD2Ev(ptr noundef nonnull align 8 dereferenceable(8) %arraydestroy.element13) #16
  %arraydestroy.done14 = icmp eq ptr %arraydestroy.element13, %this
  br i1 %arraydestroy.done14, label %eh.resume, label %arraydestroy.body11

eh.resume:                                        ; preds = %arraydestroy.body11
  resume { ptr, i32 } %0
}